target datalayout = "e-m:e-p270:32:32-p271:32:32-p272:64:64-i64:64-i128:128-f80:128-n8:16:32:64-S128"
target triple = "x86_64-pc-linux-gnu"

%struct.lua_TValue = type { %union.Value, i32 }
%union.Value = type { ptr }

@.str = private unnamed_addr constant [6 x i8] c"%.14g\00", align 1

; Function Attrs: nounwind uwtable
define hidden i32 @luaV_tostring(ptr noundef %0, ptr noundef %1) #0 {
  %3 = alloca i32, align 4
  %4 = alloca ptr, align 8
  %5 = alloca ptr, align 8
  %6 = alloca [32 x i8], align 16
  %7 = alloca double, align 8
  %8 = alloca ptr, align 8
  store ptr %0, ptr %4, align 8, !tbaa !15
  store ptr %1, ptr %5, align 8, !tbaa !4
  %9 = load ptr, ptr %5, align 8, !tbaa !4
  %10 = getelementptr inbounds nuw %struct.lua_TValue, ptr %9, i32 0, i32 1
  %11 = load i32, ptr %10, align 8, !tbaa !9
  %12 = icmp eq i32 %11, 3
  br i1 %12, label %14, label %13

13:                                               ; preds = %2
  store i32 0, ptr %3, align 4
  br label %31

14:                                               ; preds = %2
  call void @llvm.lifetime.start.p0(i64 32, ptr %6) #7
  call void @llvm.lifetime.start.p0(i64 8, ptr %7) #7
  %15 = load ptr, ptr %5, align 8, !tbaa !4
  %16 = getelementptr inbounds nuw %struct.lua_TValue, ptr %15, i32 0, i32 0
  %17 = load double, ptr %16, align 8, !tbaa !12
  store double %17, ptr %7, align 8, !tbaa !13
  %18 = getelementptr inbounds [32 x i8], ptr %6, i64 0, i64 0
  %19 = load double, ptr %7, align 8, !tbaa !13
  %20 = call i32 (ptr, ptr, ...) @sprintf(ptr noundef %18, ptr noundef @.str, double noundef %19) #7
  call void @llvm.lifetime.start.p0(i64 8, ptr %8) #7
  %21 = load ptr, ptr %5, align 8, !tbaa !4
  store ptr %21, ptr %8, align 8, !tbaa !4
  %22 = load ptr, ptr %4, align 8, !tbaa !15
  %23 = getelementptr inbounds [32 x i8], ptr %6, i64 0, i64 0
  %24 = getelementptr inbounds [32 x i8], ptr %6, i64 0, i64 0
  %25 = call i64 @strlen(ptr noundef %24) #8
  %26 = call ptr @luaS_newlstr(ptr noundef %22, ptr noundef %23, i64 noundef %25)
  %27 = load ptr, ptr %8, align 8, !tbaa !4
  %28 = getelementptr inbounds nuw %struct.lua_TValue, ptr %27, i32 0, i32 0
  store ptr %26, ptr %28, align 8, !tbaa !12
  %29 = load ptr, ptr %8, align 8, !tbaa !4
  %30 = getelementptr inbounds nuw %struct.lua_TValue, ptr %29, i32 0, i32 1
  store i32 4, ptr %30, align 8, !tbaa !9
  call void @llvm.lifetime.end.p0(i64 8, ptr %8) #7
  store i32 1, ptr %3, align 4
  call void @llvm.lifetime.end.p0(i64 8, ptr %7) #7
  call void @llvm.lifetime.end.p0(i64 32, ptr %6) #7
  br label %31

31:                                               ; preds = %14, %13
  %32 = load i32, ptr %3, align 4
  ret i32 %32
}