; Function Attrs: nounwind uwtable
define hidden range(i32 0, 2) i32 @luaV_tostring(ptr noundef %0, ptr noundef captures(none) %1) local_unnamed_addr #0 {
  %3 = alloca [32 x i8], align 16
  %4 = getelementptr inbounds nuw i8, ptr %1, i64 8
  %5 = load i32, ptr %4, align 8, !tbaa !4
  %6 = icmp eq i32 %5, 3
  br i1 %6, label %7, label %12

7:                                                ; preds = %2
  call void @llvm.lifetime.start.p0(i64 32, ptr nonnull %3) #9
  %8 = load double, ptr %1, align 8, !tbaa !9
  %9 = call i32 (ptr, ptr, ...) @sprintf(ptr noundef nonnull dereferenceable(1) %3, ptr noundef nonnull dereferenceable(1) @.str, double noundef %8) #9
  %10 = call i64 @strlen(ptr noundef nonnull dereferenceable(1) %3) #10
  %11 = call ptr @luaS_newlstr(ptr noundef %0, ptr noundef nonnull %3, i64 noundef %10) #9
  store ptr %11, ptr %1, align 8, !tbaa !9
  store i32 4, ptr %4, align 8, !tbaa !4
  call void @llvm.lifetime.end.p0(i64 32, ptr nonnull %3) #9
  br label %12

12:                                               ; preds = %2, %7
  %.0 = phi i32 [ 1, %7 ], [ 0, %2 ]
  ret i32 %.0
}